target datalayout = "e-m:e-p270:32:32-p271:32:32-p272:64:64-i64:64-i128:128-f80:128-n8:16:32:64-S128"
target triple = "x86_64-pc-linux-gnu"

%struct.sigaction = type { %union.anon, %struct.__sigset_t, i32, ptr }
%union.anon = type { ptr }
%struct.__sigset_t = type { [16 x i64] }

@globalL = internal global ptr null, align 8

; Function Attrs: nounwind uwtable
define internal void @setsignal(i32 noundef %0, ptr noundef %1) #0 {
  %3 = alloca i32, align 4
  %4 = alloca ptr, align 8
  %5 = alloca %struct.sigaction, align 8
  store i32 %0, ptr %3, align 4, !tbaa !4
  store ptr %1, ptr %4, align 8, !tbaa !20
  call void @llvm.lifetime.start.p0(i64 152, ptr %5) #5
  %6 = load ptr, ptr %4, align 8, !tbaa !20
  %7 = getelementptr inbounds nuw %struct.sigaction, ptr %5, i32 0, i32 0
  store ptr %6, ptr %7, align 8, !tbaa !19
  %8 = getelementptr inbounds nuw %struct.sigaction, ptr %5, i32 0, i32 2
  store i32 0, ptr %8, align 8, !tbaa !21
  %9 = getelementptr inbounds nuw %struct.sigaction, ptr %5, i32 0, i32 1
  %10 = call i32 @sigemptyset(ptr noundef %9) #5
  %11 = load i32, ptr %3, align 4, !tbaa !4
  %12 = call i32 @sigaction(i32 noundef %11, ptr noundef %5, ptr noundef null) #5
  call void @llvm.lifetime.end.p0(i64 152, ptr %5) #5
  ret void
}

; Function Attrs: nounwind uwtable
define internal void @laction(i32 noundef %0) #0 {
  %2 = alloca i32, align 4
  %3 = alloca i32, align 4
  store i32 %0, ptr %2, align 4, !tbaa !4
  call void @llvm.lifetime.start.p0(i64 4, ptr %3) #5
  store i32 15, ptr %3, align 4, !tbaa !4
  %4 = load i32, ptr %2, align 4, !tbaa !4
  call void @setsignal(i32 noundef %4, ptr noundef null)
  %5 = load ptr, ptr @globalL, align 8, !tbaa !11
  %6 = load i32, ptr %3, align 4, !tbaa !4
  call void @lua_sethook(ptr noundef %5, ptr noundef @lstop, i32 noundef %6, i32 noundef 1)
  call void @llvm.lifetime.end.p0(i64 4, ptr %3) #5
  ret void
}