; Function Attrs: nounwind uwtable
define internal void @laction(i32 noundef %0) #0 {
  %2 = alloca %struct.sigaction, align 8
  call void @llvm.lifetime.start.p0(i64 152, ptr nonnull %2) #10
  store ptr null, ptr %2, align 8, !tbaa !11
  %3 = getelementptr inbounds nuw i8, ptr %2, i64 136
  store i32 0, ptr %3, align 8, !tbaa !17
  %4 = getelementptr inbounds nuw i8, ptr %2, i64 8
  %5 = call i32 @sigemptyset(ptr noundef nonnull %4) #10
  %6 = call i32 @sigaction(i32 noundef %0, ptr noundef nonnull %2, ptr noundef null) #10
  call void @llvm.lifetime.end.p0(i64 152, ptr nonnull %2) #10
  %7 = load ptr, ptr @globalL, align 8, !tbaa !15
  call void @lua_sethook(ptr noundef %7, ptr noundef nonnull @lstop, i32 noundef 15, i32 noundef 1) #10
  ret void
}